(lp0
(lp1
(dp2
S'head_yaw'
p3
F0.00302600860596
sa(dp4
S'distance'
p5
cnumpy.core.multiarray
scalar
p6
(cnumpy
dtype
p7
(S'f8'
p8
I0
I1
tp9
Rp10
(I3
S'<'
p11
NNNI-1
I-1
I0
tp12
bS'\xfe>\x96\xf8K\x83\x00@'
p13
tp14
Rp15
sS'id'
p16
I4
sS'bearing'
p17
g6
(g10
S'\xb4(aM_N\xbc\xbf'
p18
tp19
Rp20
saa(lp21
(dp22
g3
F0.0045599937439
sa(dp23
g5
g6
(g10
S'A\xae\xd0\xcd\x97\x1e\x00@'
p24
tp25
Rp26
sg16
I4
sg17
g6
(g10
S'\\7b\x95\xd4\x85\xbe\xbf'
p27
tp28
Rp29
saa(lp30
(dp31
g3
F0.00609397888184
saa(lp32
(dp33
g3
F-0.00157594680786
sa(dp34
g5
g6
(g10
S'\xde\\s\xe3\x06g\xfc?'
p35
tp36
Rp37
sg16
I4
sg17
g6
(g10
S'\xc5\xd9\xb7\xd2\r\xfa\xc3\xbf'
p38
tp39
Rp40
saa(lp41
(dp42
g3
F-0.00617790222168
sa(dp43
g5
g6
(g10
S'\xf16\x90G\xaf\xd5\xfb?'
p44
tp45
Rp46
sg16
I4
sg17
g6
(g10
S'\x08\x0c\xa7\x8c\x82\xb8\xc5\xbf'
p47
tp48
Rp49
saa(lp50
(dp51
g3
F-0.00157594680786
sa(dp52
g5
g6
(g10
S'\xad\x15\xe3!M"\xfa?'
p53
tp54
Rp55
sg16
I4
sg17
g6
(g10
S'\x04c\xc2\x93\x88\t\xc7\xbf'
p56
tp57
Rp58
saa(lp59
(dp60
g3
F-0.00157594680786
sa(dp61
g5
g6
(g10
S'\xec\\>\x98t\xec\xf8?'
p62
tp63
Rp64
sg16
I4
sg17
g6
(g10
S'G\x1d>\xc6#\xd2\xc6\xbf'
p65
tp66
Rp67
saa(lp68
(dp69
g3
F-4.19616699219e-05
sa(dp70
g5
g6
(g10
S'\xc5G\x85)fm\xf7?'
p71
tp72
Rp73
sg16
I4
sg17
g6
(g10
S'\x9b\xe1\x9d"\xe6\xbd\xc7\xbf'
p74
tp75
Rp76
saa(lp77
(dp78
g3
F0.00302600860596
sa(dp79
g5
g6
(g10
S'7#\xe4\x10\x7fa\xf5?'
p80
tp81
Rp82
sg16
I4
sg17
g6
(g10
S'\x93H\x14\xf1>l\xc9\xbf'
p83
tp84
Rp85
saa(lp86
(dp87
g3
F0.00149202346802
sa(dp88
g5
g6
(g10
S'\x94\x95j\xc8mb\xf4?'
p89
tp90
Rp91
sg16
I4
sg17
g6
(g10
S'\xa5;O5\x14\xc8\xc9\xbf'
p92
tp93
Rp94
saa(lp95
(dp96
g3
F0.00762796401978
sa(dp97
g5
g6
(g10
S'4\xf1\x85\x91\xd6K\xf3?'
p98
tp99
Rp100
sg16
I4
sg17
g6
(g10
S'\x93\x99\xac\x9b\x05\xf5\xcc\xbf'
p101
tp102
Rp103
saa(lp104
(dp105
g3
F0.00762796401978
saa(lp106
(dp107
g3
F0.00302600860596
sa(dp108
g5
g6
(g10
S'\xb098\t\xce\x1c\xf0?'
p109
tp110
Rp111
sg16
I4
sg17
g6
(g10
S'\x98\xb4\xa1\xcb\x9bO\xd2\xbf'
p112
tp113
Rp114
saa(lp115
(dp116
g3
F0.00762796401978
saa(lp117
(dp118
g3
F0.00149202346802
saa(lp119
(dp120
g3
F0.00149202346802
saa(lp121
(dp122
g3
F0.0045599937439
saa(lp123
(dp124
g3
F0.00302600860596
sa(dp125
g5
g6
(g10
S'\x87,\xd9\x84\xa4R\x06@'
p126
tp127
Rp128
sg16
I1
sg17
g6
(g10
S'#\x96\x06\xf24A\xd4?'
p129
tp130
Rp131
saa(lp132
(dp133
g3
F0.0045599937439
sa(dp134
g5
g6
(g10
S'e\xb6\xb1\xdf\xe34\x06@'
p135
tp136
Rp137
sg16
I1
sg17
g6
(g10
S'0Y\x8be\xa5^\xd3?'
p138
tp139
Rp140
saa(lp141
(dp142
g3
F-4.19616699219e-05
sa(dp143
g5
g6
(g10
S'\xa3\x90\xa0\xf8M\xd2\x04@'
p144
tp145
Rp146
sg16
I1
sg17
g6
(g10
S'\xf5M\x90\x9e\xc5&\xd4?'
p147
tp148
Rp149
saa(lp150
(dp151
g3
F0.00302600860596
sa(dp152
g5
g6
(g10
S'\xa1TG\xef\x9d\x12\x04@'
p153
tp154
Rp155
sg16
I1
sg17
g6
(g10
S'\x13\xa4\xc8\x16\xebE\xd5?'
p156
tp157
Rp158
saa(lp159
(dp160
g3
F-4.19616699219e-05
sa(dp161
g5
g6
(g10
S'\xeda[\x03\xf3\xd4\x02@'
p162
tp163
Rp164
sg16
I1
sg17
g6
(g10
S'C\xa3\xfa\xf3\xfa\xcf\xd5?'
p165
tp166
Rp167
saa(lp168
(dp169
g3
F0.00149202346802
sa(dp170
g5
g6
(g10
S'-\xd0\x95\x86\x04\t\x02@'
p171
tp172
Rp173
sg16
I1
sg17
g6
(g10
S'<\x14/\xf0\xc0e\xd5?'
p174
tp175
Rp176
saa(lp177
(dp178
g3
F-0.00157594680786
sa(dp179
g5
g6
(g10
S'+H\x1b\xc0\xe2\xfd\x01@'
p180
tp181
Rp182
sg16
I1
sg17
g6
(g10
S'MT\xf7\x00_N\xd7?'
p183
tp184
Rp185
saa(lp186
(dp187
g3
F0.00762796401978
sa(dp188
g5
g6
(g10
S'2\x9a\xacHa5\x01@'
p189
tp190
Rp191
sg16
I1
sg17
g6
(g10
S'\x92/#\xa4\x9d\x1a\xd9?'
p192
tp193
Rp194
saa(lp195
(dp196
g3
F0.00149202346802
sa(dp197
g5
g6
(g10
S'\x89Q\xb1\xff\xbc#\x01@'
p198
tp199
Rp200
sg16
I1
sg17
g6
(g10
S"\xaac\xafn'\x9b\xd3?"
p201
tp202
Rp203
saa(lp204
(dp205
g3
F0.00302600860596
sa(dp206
g5
g6
(g10
S"S\xa6\x13'B\xfa\xfe?"
p207
tp208
Rp209
sg16
I1
sg17
g6
(g10
S'\x7fX\xa0\xb0\xc9\x01\xd8\xbf'
p210
tp211
Rp212
saa(lp213
(dp214
g3
F0.00609397888184
sa(dp215
g5
g6
(g10
S"'\xc7\x95\x0b]\xa3\xfd?"
p216
tp217
Rp218
sg16
I1
sg17
g6
(g10
S'l\xf1\x95\xcc\xb1\xde\xd7\xbf'
p219
tp220
Rp221
saa(lp222
(dp223
g3
F-0.00157594680786
sa(dp224
g5
g6
(g10
S'2\xd5`\x82\xde\xbd\xfb?'
p225
tp226
Rp227
sg16
I1
sg17
g6
(g10
S'\xbc\xea\xea6\x98\xe9\xd9\xbf'
p228
tp229
Rp230
saa(lp231
(dp232
g3
F0.00762796401978
sa(dp233
g5
g6
(g10
S'~tNQ\xc9U\xfa?'
p234
tp235
Rp236
sg16
I1
sg17
g6
(g10
S'\xe8\xd3\xce\xde\xa1{\xdb\xbf'
p237
tp238
Rp239
saa(lp240
(dp241
g3
F-0.00157594680786
sa(dp242
g5
g6
(g10
S'IM\xf1\xed\xd4\xa7\xf8?'
p243
tp244
Rp245
sg16
I1
sg17
g6
(g10
S'\x85-\xad0\x08\xe7\xdd\xbf'
p246
tp247
Rp248
saa(lp249
(dp250
g3
F0.0045599937439
sa(dp251
g5
g6
(g10
S'\xce%\xdf\xdcx\x80\xfa?'
p252
tp253
Rp254
sg16
I1
sg17
g6
(g10
S'{%\xc4\x02\xdc\xec\xcb\xbf'
p255
tp256
Rp257
saa(lp258
(dp259
g3
F0.00762796401978
saa(lp260
(dp261
g3
F0.00149202346802
sa(dp262
g5
g6
(g10
S'\x14\x8fK\xae\xfb[\xf6?'
p263
tp264
Rp265
sg16
I1
sg17
g6
(g10
S'@t\xeeZ 7\xd7?'
p266
tp267
Rp268
saa(lp269
(dp270
g3
F0.00302600860596
sa(dp271
g5
g6
(g10
S'\x14\xdc\x07l\x97n\xf4?'
p272
tp273
Rp274
sg16
I1
sg17
g6
(g10
S'\xc5\xde\\0?\x9c\xd7\xbf'
p275
tp276
Rp277
saa(lp278
(dp279
g3
F0.0045599937439
saa(lp280
(dp281
g3
F0.00149202346802
saa(lp282
(dp283
g3
F0.0045599937439
sa(dp284
g5
g6
(g10
S'\xa8\x81C\xa0J\x86\n@'
p285
tp286
Rp287
sg16
I2
sg17
g6
(g10
S'\xc3\xba\xc0\xa1\xde\xc7\xbf\xbf'
p288
tp289
Rp290
saa(lp291
(dp292
g3
F0.00302600860596
sa(dp293
g5
g6
(g10
S'v\xa4U\xe0\xc0\xf8\t@'
p294
tp295
Rp296
sg16
I2
sg17
g6
(g10
S'h\x07\x03\xa4\x99\x87\xb9\xbf'
p297
tp298
Rp299
saa(lp300
(dp301
g3
F-4.19616699219e-05
sa(dp302
g5
g6
(g10
S'y\x92\x08\x97\x01\xc5\t@'
p303
tp304
Rp305
sg16
I2
sg17
g6
(g10
S'tuS\x9aV\xfe\xb9\xbf'
p306
tp307
Rp308
saa(lp309
(dp310
g3
F0.00149202346802
sa(dp311
g5
g6
(g10
S',\xc0\xa0H\xae\xcd\x08@'
p312
tp313
Rp314
sg16
I2
sg17
g6
(g10
S'\xadWa\xf8\x1b\xcf\xb9\xbf'
p315
tp316
Rp317
saa(lp318
(dp319
g3
F0.00916194915771
sa(dp320
g5
g6
(g10
S'\xa0:\x97\x05$>\x08@'
p321
tp322
Rp323
sg16
I2
sg17
g6
(g10
S'\xae\x0c\xe2\xf7}\xef\xb6\xbf'
p324
tp325
Rp326
saa(lp327
(dp328
g3
F0.00149202346802
sa(dp329
g5
g6
(g10
S',.\xfb\xd4\xd2\x11\x08@'
p330
tp331
Rp332
sg16
I2
sg17
g6
(g10
S'\n\xfc)J%m\xb4\xbf'
p333
tp334
Rp335
saa(lp336
(dp337
g3
F-4.19616699219e-05
sa(dp338
g5
g6
(g10
S'N\xb9\x0fAr\xfe\x08@'
p339
tp340
Rp341
sg16
I2
sg17
g6
(g10
S'\x0b\x8e!:U{\xae\xbf'
p342
tp343
Rp344
saa(lp345
(dp346
g3
F0.00302600860596
sa(dp347
g5
g6
(g10
S'\xda\xdc\xa9\xff\x9ds\x08@'
p348
tp349
Rp350
sg16
I2
sg17
g6
(g10
S'Y\x03\xbdeS\xdc\xb2\xbf'
p351
tp352
Rp353
saa(lp354
(dp355
g3
F0.0045599937439
sa(dp356
g5
g6
(g10
S'\x03\xe5\xb2\x03\xa2\xa7\x07@'
p357
tp358
Rp359
sg16
I2
sg17
g6
(g10
S'\xe6\xc1~\x975C\xb2\xbf'
p360
tp361
Rp362
saa(lp363
(dp364
g3
F0.00762796401978
sa(dp365
g5
g6
(g10
S'\x89\xf0S`\x02\xb7\x06@'
p366
tp367
Rp368
sg16
I2
sg17
g6
(g10
S'\xe7Q\x89\xfb \xa5\xb1\xbf'
p369
tp370
Rp371
saa(lp372
(dp373
g3
F0.00302600860596
sa(dp374
g5
g6
(g10
S'y\xea\x89V\xc3\xad\x06@'
p375
tp376
Rp377
sg16
I2
sg17
g6
(g10
S'\xa49\xd0\x10\xb2P\xb1\xbf'
p378
tp379
Rp380
saa(lp381
(dp382
g3
F-0.0031099319458
sa(dp383
g5
g6
(g10
S'\xe5\xe8\x07S\xbf\x12\x07@'
p384
tp385
Rp386
sg16
I2
sg17
g6
(g10
S'\x03\x9aGP\x07\x11\xae\xbf'
p387
tp388
Rp389
saa(lp390
(dp391
g3
F-4.19616699219e-05
sa(dp392
g5
g6
(g10
S'\xad\xd5\xd4/\xc68\x06@'
p393
tp394
Rp395
sg16
I2
sg17
g6
(g10
S'\x1c1\x84\x1d#\xce\xa8\xbf'
p396
tp397
Rp398
saa(lp399
(dp400
g3
F-0.00157594680786
sa(dp401
g5
g6
(g10
S'\xd0(5$\xc2\xba\x05@'
p402
tp403
Rp404
sg16
I2
sg17
g6
(g10
S'\x01\xf2\xd8\x98c\x03\xb1\xbf'
p405
tp406
Rp407
saa(lp408
(dp409
g3
F-4.19616699219e-05
sa(dp410
g5
g6
(g10
S'i.t\xbb\x05\xf4\x04@'
p411
tp412
Rp413
sg16
I2
sg17
g6
(g10
S'\xb8\xeb\xeb\x87\xe2\x1d\xa5\xbf'
p414
tp415
Rp416
saa(lp417
(dp418
g3
F0.0045599937439
sa(dp419
g5
g6
(g10
S'-0\xca}\xd6\xf8\x04@'
p420
tp421
Rp422
sg16
I2
sg17
g6
(g10
S'\x15\xb3))\xd8\x90\xa5\xbf'
p423
tp424
Rp425
saa(lp426
(dp427
g3
F-4.19616699219e-05
sa(dp428
g5
g6
(g10
S'5\xb9\x94\xdf\x05J\x04@'
p429
tp430
Rp431
sg16
I2
sg17
g6
(g10
S'\x10*\x06\xb4\xb1\xa9\xa3\xbf'
p432
tp433
Rp434
saa(lp435
(dp436
g3
F0.00762796401978
sa(dp437
g5
g6
(g10
S'\xacAI{\xe5\x01\x04@'
p438
tp439
Rp440
sg16
I2
sg17
g6
(g10
S'e\xdb\xfe\xfd~\xa0\xa5\xbf'
p441
tp442
Rp443
saa(lp444
(dp445
g3
F-4.19616699219e-05
sa(dp446
g5
g6
(g10
S'\xc8\x8c\xbb\xfa\xdfW\x02@'
p447
tp448
Rp449
sg16
I2
sg17
g6
(g10
S'\xe4s\x19izm\xac\xbf'
p450
tp451
Rp452
saa(lp453
(dp454
g3
F0.00762796401978
sa(dp455
g5
g6
(g10
S'\x98_ic\x1f\xd7\x01@'
p456
tp457
Rp458
sg16
I2
sg17
g6
(g10
S'\xcc\x87\xb4\xd8\\K\xa8\xbf'
p459
tp460
Rp461
saa(lp462
(dp463
g3
F-0.00157594680786
sa(dp464
g5
g6
(g10
S'K\x082\xed\xa5,\x01@'
p465
tp466
Rp467
sg16
I2
sg17
g6
(g10
S'\xde\xbd\xfc\xec@d\xa2\xbf'
p468
tp469
Rp470
saa(lp471
(dp472
g3
F0.00149202346802
sa(dp473
g5
g6
(g10
S'\x1c\xf9\x92\xe1+a\x00@'
p474
tp475
Rp476
sg16
I2
sg17
g6
(g10
S'p\x02\x8d\xde\xf3\xee\x9e\xbf'
p477
tp478
Rp479
saa(lp480
(dp481
g3
F0.00609397888184
sa(dp482
g5
g6
(g10
S'!\x9a\x10\xe5\xa8\xac\xff?'
p483
tp484
Rp485
sg16
I2
sg17
g6
(g10
S'D\xb5?\xf9\x01(\xa5\xbf'
p486
tp487
Rp488
saa(lp489
(dp490
g3
F0.00149202346802
sa(dp491
g5
g6
(g10
S'\xaf]\xb6\x1fV\xa4\xfd?'
p492
tp493
Rp494
sg16
I2
sg17
g6
(g10
S'M3\x8f\xfb\xc9\xe5\xaf\xbf'
p495
tp496
Rp497
saa(lp498
(dp499
g3
F-0.0031099319458
sa(dp500
g5
g6
(g10
S'\x15\xb1\xe4\x83o@\xfc?'
p501
tp502
Rp503
sg16
I2
sg17
g6
(g10
S'Q\xf9t\xccq\x0c\xa5\xbf'
p504
tp505
Rp506
saa(lp507
(dp508
g3
F-0.00771188735962
saa(lp509
(dp510
g3
F0.00302600860596
saa(lp511
(dp512
g3
F0.00149202346802
sa(dp513
g5
g6
(g10
S'h87g\x8e\x07\x07@'
p514
tp515
Rp516
sg16
I3
sg17
g6
(g10
S'C\x87;\xf1\x13\xee\xaf?'
p517
tp518
Rp519
saa(lp520
(dp521
g3
F0.00916194915771
saa(lp522
(dp523
g3
F0.00149202346802
sa(dp524
g5
g6
(g10
S'\x17\xfb\x14\xce\x01\x8b\x04@'
p525
tp526
Rp527
sg16
I3
sg17
g6
(g10
S'\xc4\x84B\xbd%\x96\xd5\xbf'
p528
tp529
Rp530
saa(lp531
(dp532
g3
F0.00302600860596
sa(dp533
g5
g6
(g10
S'!\xce\xbe\xeb\x91\xf3\x04@'
p534
tp535
Rp536
sg16
I3
sg17
g6
(g10
S'\x15[\xf4Q\x13\x8b\xd0?'
p537
tp538
Rp539
saa(lp540
(dp541
g3
F-0.0031099319458
sa(dp542
g5
g6
(g10
S'\x9bNl\x89\xe6\xfd\x03@'
p543
tp544
Rp545
sg16
I3
sg17
g6
(g10
S'[+\\\x96\xc6H\xd1?'
p546
tp547
Rp548
saa(lp549
(dp550
g3
F0.00149202346802
sa(dp551
g5
g6
(g10
S'\t\x8b\x8a_(\xdb\x02@'
p552
tp553
Rp554
sg16
I3
sg17
g6
(g10
S'\xf8\x1d\xe4g\xeb\xa9\xd1?'
p555
tp556
Rp557
saa(lp558
(dp559
g3
F0.0045599937439
sa(dp560
g5
g6
(g10
S'h\x90\x82\x1b\x9bA\x02@'
p561
tp562
Rp563
sg16
I3
sg17
g6
(g10
S"')\xf7\xf7d=\xd2?"
p564
tp565
Rp566
saa(lp567
(dp568
g3
F-0.00157594680786
sa(dp569
g5
g6
(g10
S'\x94=E`J.\x01@'
p570
tp571
Rp572
sg16
I3
sg17
g6
(g10
S'T\xf1\x84\x1b\x9d\xbd\xd2?'
p573
tp574
Rp575
saa(lp576
(dp577
g3
F0.0045599937439
sa(dp578
g5
g6
(g10
S'\x9b\xd5\x81-\x1f\xcb\x00@'
p579
tp580
Rp581
sg16
I3
sg17
g6
(g10
S'Tm\xf0\x1aYO\xd5?'
p582
tp583
Rp584
saa(lp585
(dp586
g3
F0.00302600860596
sa(dp587
g5
g6
(g10
S'\xb2i\x8d)\xf6\xf1\xff?'
p588
tp589
Rp590
sg16
I3
sg17
g6
(g10
S'\xb5_\xce\x9f0\x94\xd7?'
p591
tp592
Rp593
saa(lp594
(dp595
g3
F0.00762796401978
saa(lp596
(dp597
g3
F0.00916194915771
sa(dp598
g5
g6
(g10
S'/\xaa\xc7\x1e\xa1\xf5\xfb?'
p599
tp600
Rp601
sg16
I3
sg17
g6
(g10
S'\xfb\xa1\x12\xd05\x07\xd9?'
p602
tp603
Rp604
saa(lp605
(dp606
g3
F0.00762796401978
saa(lp607
(dp608
g3
F-4.19616699219e-05
saa(lp609
(dp610
g3
F0.0045599937439
sa(dp611
g5
g6
(g10
S'\xee\x1b\xe5\xeex7\xfa?'
p612
tp613
Rp614
sg16
I3
sg17
g6
(g10
S'\x082\x1ae\xba\xca\xc9\xbf'
p615
tp616
Rp617
saa(lp618
(dp619
g3
F0.00302600860596
saa(lp620
(dp621
g3
F-0.0031099319458
saa(lp622
(dp623
g3
F-4.19616699219e-05
saa(lp624
(dp625
g3
F-4.19616699219e-05
sa(dp626
g5
g6
(g10
S'\x93\xf7\x07\x89x\x9c\t@'
p627
tp628
Rp629
sg16
I1
sg17
g6
(g10
S'\x9e\xdc\xbfu\xa3/\xdd?'
p630
tp631
Rp632
saa(lp633
(dp634
g3
F0.00302600860596
saa(lp635
(dp636
g3
F0.00302600860596
saa(lp637
(dp638
g3
F0.00762796401978
saa(lp639
(dp640
g3
F0.00149202346802
saa(lp641
(dp642
g3
F0.00609397888184
saa(lp643
(dp644
g3
F0.00762796401978
sa(dp645
g5
g6
(g10
S'\xd2\xbcS\x90w\xc5\t@'
p646
tp647
Rp648
sg16
I6
sg17
g6
(g10
S'\xabfIz\xa8*\xa6\xbf'
p649
tp650
Rp651
saa(lp652
(dp653
g3
F0.00609397888184
sa(dp654
g5
g6
(g10
S'\xd0\xc2Q`\xd7y\t@'
p655
tp656
Rp657
sg16
I6
sg17
g6
(g10
S'\xc3;\x904d\xd0\x9b\xbf'
p658
tp659
Rp660
saa(lp661
(dp662
g3
F0.0045599937439
saa(lp663
(dp664
g3
F0.00302600860596
sa(dp665
g5
g6
(g10
S'\xc9J\xc8\xd4\xba\xa4\n@'
p666
tp667
Rp668
sg16
I6
sg17
g6
(g10
S'\xb3X\xea!\xab\xbf\xa2\xbf'
p669
tp670
Rp671
saa(lp672
(dp673
g3
F0.00916194915771
sa(dp674
g5
g6
(g10
S'\x8a\xe9\x1e\xad\x14\xa6\t@'
p675
tp676
Rp677
sg16
I6
sg17
g6
(g10
S'Vv\xd4\xfc\xf5\xf0\x99\xbf'
p678
tp679
Rp680
saa(lp681
(dp682
g3
F0.00302600860596
sa(dp683
g5
g6
(g10
S'\x18\x1dg!+u\x08@'
p684
tp685
Rp686
sg16
I6
sg17
g6
(g10
S'\xad\x87\xcf+\x83\x18\xb1\xbf'
p687
tp688
Rp689
saa(lp690
(dp691
g3
F0.00149202346802
sa(dp692
g5
g6
(g10
S'\xcf\xe0\x06\xc4\x04+\x07@'
p693
tp694
Rp695
sg16
I6
sg17
g6
(g10
S'm~\xce\x93c\x9a\xb3\xbf'
p696
tp697
Rp698
saa(lp699
(dp700
g3
F0.0045599937439
sa(dp701
g5
g6
(g10
S'\xe8\xd2\x91\xefkU\x08@'
p702
tp703
Rp704
sg16
I6
sg17
g6
(g10
S'_y\xfc7-\xa5\xb6\xbf'
p705
tp706
Rp707
saa(lp708
(dp709
g3
F0.00302600860596
sa(dp710
g5
g6
(g10
S'\x1ai\xc6\xd9w\xb2\x07@'
p711
tp712
Rp713
sg16
I6
sg17
g6
(g10
S'A\xcc\xf3\xb3\xe8C\xb5\xbf'
p714
tp715
Rp716
saa(lp717
(dp718
g3
F0.00149202346802
saa(lp719
(dp720
g3
F-4.19616699219e-05
sa(dp721
g5
g6
(g10
S'g\x9c\n\xcb\xc2\xd3\x05@'
p722
tp723
Rp724
sg16
I6
sg17
g6
(g10
S'\xe6zF\x81m\x8f\xc0\xbf'
p725
tp726
Rp727
saa(lp728
(dp729
g3
F0.00302600860596
sa(dp730
g5
g6
(g10
S'\xe2\xadw(K\x03\x06@'
p731
tp732
Rp733
sg16
I6
sg17
g6
(g10
S'M\x01S\x08\xb1\xb9\xc0\xbf'
p734
tp735
Rp736
saa(lp737
(dp738
g3
F-4.19616699219e-05
sa(dp739
g5
g6
(g10
S"'r/t\x8b\xc4\x05@"
p740
tp741
Rp742
sg16
I6
sg17
g6
(g10
S'm\xdc\xaf\n\xb3\xe4\xc3\xbf'
p743
tp744
Rp745
saa(lp746
(dp747
g3
F-4.19616699219e-05
sa(dp748
g5
g6
(g10
S'\xac\xf6\xa8\xbf\xa1\x0e\x03@'
p749
tp750
Rp751
sg16
I6
sg17
g6
(g10
S'\xa4\xe7\xc77F~\xc4\xbf'
p752
tp753
Rp754
saa(lp755
(dp756
g3
F-4.19616699219e-05
saa(lp757
(dp758
g3
F0.00302600860596
sa(dp759
g5
g6
(g10
S'.\xb3\x9d)\xcb\xf6\x02@'
p760
tp761
Rp762
sg16
I6
sg17
g6
(g10
S'\x05^@\x99\xee\xc7\xc7\xbf'
p763
tp764
Rp765
saa(lp766
(dp767
g3
F0.00609397888184
sa(dp768
g5
g6
(g10
S'\x93\xc3\x81\xff\xc6\xc5\x01@'
p769
tp770
Rp771
sg16
I6
sg17
g6
(g10
S'}\xb9\x06\xda\xeb6\xc9\xbf'
p772
tp773
Rp774
saa(lp775
(dp776
g3
F0.00609397888184
saa(lp777
(dp778
g3
F0.00302600860596
saa(lp779
(dp780
g3
F0.0045599937439
saa(lp781
(dp782
g3
F0.00762796401978
saa(lp783
(dp784
g3
F0.0045599937439
sa(dp785
g5
g6
(g10
S'A R>4\xf4\x08@'
p786
tp787
Rp788
sg16
I4
sg17
g6
(g10
S'\xac\x0b7\x11\x9c\x95\xd6?'
p789
tp790
Rp791
saa(lp792
(dp793
g3
F0.0045599937439
sa(dp794
g5
g6
(g10
S' |\xc5\x18L\xd6\x08@'
p795
tp796
Rp797
sg16
I4
sg17
g6
(g10
S'\xc71<\x96x\x9d\xcf?'
p798
tp799
Rp800
saa(lp801
(dp802
g3
F0.0045599937439
sa(dp803
g5
g6
(g10
S'\x8bUA\xab\xd0\xaf\x08@'
p804
tp805
Rp806
sg16
I4
sg17
g6
(g10
S'\xa8\x90\rm\r}\xd0?'
p807
tp808
Rp809
saa(lp810
(dp811
g3
F0.0045599937439
sa(dp812
g5
g6
(g10
S'#\x91\x83\xe2 \x93\x08@'
p813
tp814
Rp815
sg16
I4
sg17
g6
(g10
S'\x81\xca\x96z\x84d\xcf?'
p816
tp817
Rp818
saa(lp819
(dp820
g3
F0.00762796401978
sa(dp821
g5
g6
(g10
S'\xe0\xe0\xaa\x1d\xa3F\x07@'
p822
tp823
Rp824
sg16
I4
sg17
g6
(g10
S'kDy\x00\x85Z\xd1?'
p825
tp826
Rp827
saa(lp828
(dp829
g3
F0.00302600860596
sa(dp830
g5
g6
(g10
S'\xe8\xf5\x0ea\xf8\x8c\x07@'
p831
tp832
Rp833
sg16
I4
sg17
g6
(g10
S'\x17a8\xa1 \xde\xd0?'
p834
tp835
Rp836
saa(lp837
(dp838
g3
F0.00609397888184
sa(dp839
g5
g6
(g10
S'~\xf3\xd2h>4\x07@'
p840
tp841
Rp842
sg16
I4
sg17
g6
(g10
S'TK\xcf#\xaf<\xd0?'
p843
tp844
Rp845
saa(lp846
(dp847
g3
F0.00149202346802
sa(dp848
g5
g6
(g10
S'*\x07B\xac\xd1\x01\x08@'
p849
tp850
Rp851
sg16
I4
sg17
g6
(g10
S'"\xd6NY\xa5K\xd0?'
p852
tp853
Rp854
saa(lp855
(dp856
g3
F-0.0031099319458
sa(dp857
g5
g6
(g10
S'\xd0\x89\xb9\xc3Je\x07@'
p858
tp859
Rp860
sg16
I4
sg17
g6
(g10
S'XN\xd5\xe0\xcd$\xcf?'
p861
tp862
Rp863
saa(lp864
(dp865
g3
F0.00149202346802
sa(dp866
g5
g6
(g10
S'\x9b\xe2\xac\n\xe0\xdc\x06@'
p867
tp868
Rp869
sg16
I4
sg17
g6
(g10
S"a\xe0\x95\xd8'P\xd0?"
p870
tp871
Rp872
saa(lp873
(dp874
g3
F0.0045599937439
sa(dp875
g5
g6
(g10
S'\xf6\xed\n\x12\x15O\x06@'
p876
tp877
Rp878
sg16
I4
sg17
g6
(g10
S'v\xda[>\xb5*\xd1?'
p879
tp880
Rp881
saa(lp882
(dp883
g3
F0.00609397888184
sa(dp884
g5
g6
(g10
S'f\xcck\xbc\xdf\x0c\x05@'
p885
tp886
Rp887
sg16
I4
sg17
g6
(g10
S'\xb4\xf4\xca\xdb\rl\xd0?'
p888
tp889
Rp890
saa(lp891
(dp892
g3
F0.0045599937439
sa(dp893
g5
g6
(g10
S'Eo~@\xbf;\x05@'
p894
tp895
Rp896
sg16
I4
sg17
g6
(g10
S';\x10K\x0c\x7f\x83\xce?'
p897
tp898
Rp899
saa(lp900
(dp901
g3
F0.00302600860596
sa(dp902
g5
g6
(g10
S'\xf6~\x83\rz\xc9\x03@'
p903
tp904
Rp905
sg16
I4
sg17
g6
(g10
S':j\x89\x05\x96\xa5\xcb?'
p906
tp907
Rp908
saa(lp909
(dp910
g3
F-4.19616699219e-05
saa(lp911
(dp912
g3
F0.00149202346802
sa(dp913
g5
g6
(g10
S'\xd7\xbb\xb7\xb0\xc0N\x06@'
p914
tp915
Rp916
sg16
I5
sg17
g6
(g10
S'|\xe0\x9aCy\xac\xab\xbf'
p917
tp918
Rp919
saa(lp920
(dp921
g3
F0.00302600860596
sa(dp922
g5
g6
(g10
S'N\xb3\xf5q\xd8C\x06@'
p923
tp924
Rp925
sg16
I5
sg17
g6
(g10
S"n'lG\xdd\xeb\xae\xbf"
p926
tp927
Rp928
saa(lp929
(dp930
g3
F-4.19616699219e-05
sa(dp931
g5
g6
(g10
S'6\xe2\x89\xd3\x1c\x9a\x05@'
p932
tp933
Rp934
sg16
I5
sg17
g6
(g10
S'i\x14\xad\x9f@\xa1\xb2\xbf'
p935
tp936
Rp937
saa(lp938
(dp939
g3
F-0.00157594680786
sa(dp940
g5
g6
(g10
S'&\xf5\xac\x80\x15B\x06@'
p941
tp942
Rp943
sg16
I5
sg17
g6
(g10
S'\xedWi\x1d\xaaK\xb0\xbf'
p944
tp945
Rp946
saa(lp947
(dp948
g3
F0.00609397888184
sa(dp949
g5
g6
(g10
S'\xbc\xf2\xdc\xdd(\x94\x05@'
p950
tp951
Rp952
sg16
I5
sg17
g6
(g10
S'\xdcc\xe0\xe7DE\xa4\xbf'
p953
tp954
Rp955
saa(lp956
(dp957
g3
F0.00149202346802
sa(dp958
g5
g6
(g10
S'\xc3\xaf\xa3\xe9s\xe3\x03@'
p959
tp960
Rp961
sg16
I5
sg17
g6
(g10
S'\xb3@\x80\xca\x9c\xd6\x8c\xbf'
p962
tp963
Rp964
saa(lp965
(dp966
g3
F0.0045599937439
saa(lp967
(dp968
g3
F0.00609397888184
saa(lp969
(dp970
g3
F0.00149202346802
sa(dp971
g5
g6
(g10
S'n?\x03\x056\xcf\x01@'
p972
tp973
Rp974
sg16
I5
sg17
g6
(g10
S'\xfa\xa9\xf5my<{\xbf'
p975
tp976
Rp977
saa(lp978
(dp979
g3
F0.00302600860596
sa(dp980
g5
g6
(g10
S'\xf3\x92\xc7\xa3u\x15\x02@'
p981
tp982
Rp983
sg16
I5
sg17
g6
(g10
S'pu\xd6\x0b\x97\x8cp\xbf'
p984
tp985
Rp986
saa(lp987
(dp988
g3
F0.00609397888184
saa(lp989
(dp990
g3
F-0.0031099319458
saa(lp991
(dp992
g3
F0.00302600860596
saa(lp993
(dp994
g3
F0.00762796401978
sa(dp995
g5
g6
(g10
S'\xe7?\xe4\x19\xbe\\\xfc?'
p996
tp997
Rp998
sg16
I5
sg17
g6
(g10
S'\xff\xf7\x02@X\x98\x81?'
p999
tp1000
Rp1001
saa(lp1002
(dp1003
g3
F-4.19616699219e-05
saa(lp1004
(dp1005
g3
F0.00609397888184
saa(lp1006
(dp1007
g3
F0.00609397888184
saa(lp1008
(dp1009
g3
F0.00609397888184
saa(lp1010
(dp1011
g3
F0.00762796401978
sa(dp1012
g5
g6
(g10
S'\xf4\x7f^\x01(\xa0\x01@'
p1013
tp1014
Rp1015
sg16
I2
sg17
g6
(g10
S'\xbbK\xf1\x0b\x1a\xca\xa2\xbf'
p1016
tp1017
Rp1018
sa(dp1019
g5
g6
(g10
S'\xf4\x7f^\x01(\xa0\x01@'
p1020
tp1021
Rp1022
sg16
I4
sg17
g6
(g10
S'\xbbK\xf1\x0b\x1a\xca\xa2\xbf'
p1023
tp1024
Rp1025
saa(lp1026
(dp1027
g3
F0.00762796401978
saa(lp1028
(dp1029
g3
F0.00762796401978
saa(lp1030
(dp1031
g3
F-4.19616699219e-05
saa(lp1032
(dp1033
g3
F-4.19616699219e-05
saa(lp1034
(dp1035
g3
F0.00302600860596
saa(lp1036
(dp1037
g3
F0.0045599937439
saa(lp1038
(dp1039
g3
F0.0045599937439
saa(lp1040
(dp1041
g3
F0.0045599937439
saa(lp1042
(dp1043
g3
F0.0045599937439
saa(lp1044
(dp1045
g3
F0.0045599937439
saa(lp1046
(dp1047
g3
F0.0045599937439
saa(lp1048
(dp1049
g3
F0.0045599937439
saa(lp1050
(dp1051
g3
F0.0045599937439
saa(lp1052
(dp1053
g3
F0.0045599937439
saa(lp1054
(dp1055
g3
F0.0045599937439
saa(lp1056
(dp1057
g3
F0.0045599937439
saa(lp1058
(dp1059
g3
F0.0045599937439
saa(lp1060
(dp1061
g3
F0.0045599937439
saa(lp1062
(dp1063
g3
F0.0045599937439
saa(lp1064
(dp1065
g3
F0.0045599937439
saa(lp1066
(dp1067
g3
F0.0045599937439
saa(lp1068
(dp1069
g3
F0.0045599937439
saa(lp1070
(dp1071
g3
F0.00149202346802
saa(lp1072
(dp1073
g3
F0.00302600860596
saa(lp1074
(dp1075
g3
F0.00609397888184
saa(lp1076
(dp1077
g3
F-4.19616699219e-05
saa(lp1078
(dp1079
g3
F0.00916194915771
saa(lp1080
(dp1081
g3
F0.00916194915771
sa(dp1082
g5
g6
(g10
S'\x04\xb1\x1e|s\xec\xf7?'
p1083
tp1084
Rp1085
sg16
I4
sg17
g6
(g10
S'VP<\xdaB\xa0\x98\xbf'
p1086
tp1087
Rp1088
sa(dp1089
g5
g6
(g10
S'\x0b\xf9\xe5\x17\x07\xad\t@'
p1090
tp1091
Rp1092
sg16
I1
sg17
g6
(g10
S'\xbaI6\xe6\xab\xfd\xd9?'
p1093
tp1094
Rp1095
saa(lp1096
(dp1097
g3
F0.00302600860596
saa(lp1098
(dp1099
g3
F0.00609397888184
sa(dp1100
g5
g6
(g10
S'\xb7\xe5\xc4C0-\xf4?'
p1101
tp1102
Rp1103
sg16
I4
sg17
g6
(g10
S'Xu:Io\x18\x91\xbf'
p1104
tp1105
Rp1106
sa(dp1107
g5
g6
(g10
S'\x19E#\xc9\x99\xc6\t@'
p1108
tp1109
Rp1110
sg16
I1
sg17
g6
(g10
S'E\x8c\xbe\xaf+^\xdb?'
p1111
tp1112
Rp1113
saa(lp1114
(dp1115
g3
F0.00609397888184
sa(dp1116
g5
g6
(g10
S'8\xe1\x12r_,\xf3?'
p1117
tp1118
Rp1119
sg16
I4
sg17
g6
(g10
S'$XZ\xd6v\xf8\xa6\xbf'
p1120
tp1121
Rp1122
sa(dp1123
g5
g6
(g10
S'*c<\x1c\x9b}\t@'
p1124
tp1125
Rp1126
sg16
I1
sg17
g6
(g10
S'\xcc\x86\xe1\xc5\x95\xa4\xda?'
p1127
tp1128
Rp1129
saa(lp1130
(dp1131
g3
F0.00149202346802
sa(dp1132
g5
g6
(g10
S'\xba\xc0\xa6\xa3\\\xc2\xf1?'
p1133
tp1134
Rp1135
sg16
I4
sg17
g6
(g10
S'\xd2p,;b\x12\xa0\xbf'
p1136
tp1137
Rp1138
sa(dp1139
g5
g6
(g10
S'\xc3\n+\xed:\xe4\x08@'
p1140
tp1141
Rp1142
sg16
I1
sg17
g6
(g10
S'\xf8\xef\xdfq\xd6r\xdc?'
p1143
tp1144
Rp1145
saa(lp1146
(dp1147
g3
F0.00149202346802
sa(dp1148
g5
g6
(g10
S'\x02\x0459f@\xf0?'
p1149
tp1150
Rp1151
sg16
I4
sg17
g6
(g10
S'\xe8\xd0\x8a\xa8\xdc\x9fQ?'
p1152
tp1153
Rp1154
sa(dp1155
g5
g6
(g10
S'G\xad\x0c\x00\xee\xc9\x07@'
p1156
tp1157
Rp1158
sg16
I1
sg17
g6
(g10
S'G\x03z\x13\x9e\xb5\xde?'
p1159
tp1160
Rp1161
saa(lp1162
(dp1163
g3
F0.00762796401978
sa(dp1164
g5
g6
(g10
S'\xdf\xf9\x9c\xd1\x96\xc1\x07@'
p1165
tp1166
Rp1167
sg16
I1
sg17
g6
(g10
S'z\x03Qa\x8c\xe8\xdf?'
p1168
tp1169
Rp1170
saa(lp1171
(dp1172
g3
F-0.00157594680786
sa(dp1173
g5
g6
(g10
S'\x94\x02\xc0:y\xe6\x06@'
p1174
tp1175
Rp1176
sg16
I1
sg17
g6
(g10
S'6P\x0f8\\2\xde?'
p1177
tp1178
Rp1179
saa(lp1180
(dp1181
g3
F0.00302600860596
saa(lp1182
(dp1183
g3
F0.0106959342957
saa(lp1184
(dp1185
g3
F0.00302600860596
sa(dp1186
g5
g6
(g10
S'\x93K}8s\xb5\x08@'
p1187
tp1188
Rp1189
sg16
I3
sg17
g6
(g10
S'\x93Te\x8ai8\xc6?'
p1190
tp1191
Rp1192
saa(lp1193
(dp1194
g3
F0.00609397888184
sa(dp1195
g5
g6
(g10
S'\xf5\x12\xf6\xca\xbf\xd4\x08@'
p1196
tp1197
Rp1198
sg16
I3
sg17
g6
(g10
S'\xff_\xaa\x0f\xcf\xdf\xc1?'
p1199
tp1200
Rp1201
saa(lp1202
(dp1203
g3
F0.0045599937439
sa(dp1204
g5
g6
(g10
S'\xf4\xe2*\x04\x15X\x08@'
p1205
tp1206
Rp1207
sg16
I3
sg17
g6
(g10
S'7Z8d\x0b\x89\xc3?'
p1208
tp1209
Rp1210
saa(lp1211
(dp1212
g3
F0.00609397888184
sa(dp1213
g5
g6
(g10
S'\xd2\x8a\xdf\xf1/f\t@'
p1214
tp1215
Rp1216
sg16
I3
sg17
g6
(g10
S'\x90C\xc4\x80\x01~\xc3?'
p1217
tp1218
Rp1219
saa(lp1220
(dp1221
g3
F0.00302600860596
sa(dp1222
g5
g6
(g10
S'C4\xd8\x8e%>\t@'
p1223
tp1224
Rp1225
sg16
I3
sg17
g6
(g10
S'VF\\\x16%\x19\xc5?'
p1226
tp1227
Rp1228
saa(lp1229
(dp1230
g3
F0.00609397888184
sa(dp1231
g5
g6
(g10
S'\x17\xc9\x9e\xa4\xb5$\x08@'
p1232
tp1233
Rp1234
sg16
I3
sg17
g6
(g10
S'\xfa\xb3(\xfbM\xe8\xc3?'
p1235
tp1236
Rp1237
saa(lp1238
(dp1239
g3
F0.00916194915771
sa(dp1240
g5
g6
(g10
S'u\x15\xd2\xc8C\x1d\x07@'
p1241
tp1242
Rp1243
sg16
I3
sg17
g6
(g10
S'(\xdf\xa8c\xa6\xd1\xc4?'
p1244
tp1245
Rp1246
saa(lp1247
(dp1248
g3
F0.00762796401978
sa(dp1249
g5
g6
(g10
S'\x9c\xa1m\x03E\xf3\x07@'
p1250
tp1251
Rp1252
sg16
I3
sg17
g6
(g10
S'\xa6\x9c\xba\x8a\xf7u\xc7?'
p1253
tp1254
Rp1255
saa(lp1256
(dp1257
g3
F0.00609397888184
sa(dp1258
g5
g6
(g10
S')g\xc5\xc2[m\x07@'
p1259
tp1260
Rp1261
sg16
I3
sg17
g6
(g10
S'\xe1 \xc4\xc8\xd7\xc2\xc6?'
p1262
tp1263
Rp1264
saa(lp1265
(dp1266
g3
F0.0122299194336
sa(dp1267
g5
g6
(g10
S'\x1a\x9b\x1eC\xc2\xdb\x05@'
p1268
tp1269
Rp1270
sg16
I3
sg17
g6
(g10
S'\xed\xc3\xf1\xb6)8\xcc?'
p1271
tp1272
Rp1273
saa(lp1274
(dp1275
g3
F0.00916194915771
sa(dp1276
g5
g6
(g10
S'\x10\x1b\tV\xb8\x8f\x05@'
p1277
tp1278
Rp1279
sg16
I3
sg17
g6
(g10
S'B}\x91\x06\xe3\xc5\xc8?'
p1280
tp1281
Rp1282
saa(lp1283
(dp1284
g3
F0.00302600860596
sa(dp1285
g5
g6
(g10
S'\x06\x96\xc7C\xd8\x80\x05@'
p1286
tp1287
Rp1288
sg16
I3
sg17
g6
(g10
S'\xe1\x05\x98<\xbe\xf5\xc9?'
p1289
tp1290
Rp1291
saa(lp1292
(dp1293
g3
F0.00609397888184
sa(dp1294
g5
g6
(g10
S'\xcc+k\xfe\xb0\xa4\x05@'
p1295
tp1296
Rp1297
sg16
I3
sg17
g6
(g10
S'\xa9\xeb\xfa\x86=\xd4\xca?'
p1298
tp1299
Rp1300
saa(lp1301
(dp1302
g3
F0.0045599937439
sa(dp1303
g5
g6
(g10
S']^gw\x929\x03@'
p1304
tp1305
Rp1306
sg16
I3
sg17
g6
(g10
S'B\xfa+\xac\xe5\x02\xcc?'
p1307
tp1308
Rp1309
saa(lp1310
(dp1311
g3
F0.00609397888184
sa(dp1312
g5
g6
(g10
S'2\xd5i\xfa\x9d\xdb\x03@'
p1313
tp1314
Rp1315
sg16
I3
sg17
g6
(g10
S'\xa2m\xeb\x92\xc9;\xcd?'
p1316
tp1317
Rp1318
saa(lp1319
(dp1320
g3
F-0.00157594680786
sa(dp1321
g5
g6
(g10
S"l\xdd\xd8'\xd1\x10\x03@"
p1322
tp1323
Rp1324
sg16
I3
sg17
g6
(g10
S'\xe0x\x8d\xfb\x16\x12\xce?'
p1325
tp1326
Rp1327
saa(lp1328
(dp1329
g3
F0.00149202346802
sa(dp1330
g5
g6
(g10
S"k)\xad\x92\xf4'\x02@"
p1331
tp1332
Rp1333
sg16
I3
sg17
g6
(g10
S'\xd5\x04A\xddJX\xcf?'
p1334
tp1335
Rp1336
saa(lp1337
(dp1338
g3
F0.0045599937439
sa(dp1339
g5
g6
(g10
S'\xb3\x8c\xae\x83\xc2A\x01@'
p1340
tp1341
Rp1342
sg16
I3
sg17
g6
(g10
S'Qh\xc5\x16l#\xce?'
p1343
tp1344
Rp1345
saa.